; Function Attrs: nounwind uwtable
define i32 @SUNLinSolSetPreconditioner(ptr noundef %0, ptr noundef %1, ptr noundef %2, ptr noundef %3) local_unnamed_addr #4 {
  %5 = getelementptr inbounds nuw i8, ptr %0, i64 8
  %6 = load ptr, ptr %5, align 8, !tbaa !3
  %7 = getelementptr inbounds nuw i8, ptr %6, i64 24
  %8 = load ptr, ptr %7, align 8, !tbaa !16
  %.not = icmp eq ptr %8, null
  br i1 %.not, label %11, label %9

9:                                                ; preds = %4
  %10 = tail call i32 %8(ptr noundef nonnull %0, ptr noundef %1, ptr noundef %2, ptr noundef %3) #7
  br label %11

11:                                               ; preds = %4, %9
  %.0 = phi i32 [ %10, %9 ], [ 0, %4 ]
  ret i32 %.0
}